target datalayout = "e-m:e-p270:32:32-p271:32:32-p272:64:64-i64:64-i128:128-f80:128-n8:16:32:64-S128"
target triple = "x86_64-pc-linux-gnu"

%"struct.llvm::SimplifyQuery" = type <{ ptr, ptr, ptr, ptr, ptr, ptr, ptr, %"struct.llvm::InstrInfoQuery", i8, [6 x i8] }>
%"struct.llvm::InstrInfoQuery" = type { i8 }

; Function Attrs: mustprogress nounwind uwtable
define linkonce_odr hidden void @_ZNK4llvm13SimplifyQuery15getWithoutUndefEv(ptr dead_on_unwind noalias writable sret(%"struct.llvm::SimplifyQuery") align 8 %0, ptr noundef nonnull align 8 dereferenceable(58) %1) #1 comdat align 2 {
  %3 = alloca ptr, align 8
  store ptr %1, ptr %3, align 8
  %4 = load ptr, ptr %3, align 8
  call void @llvm.memcpy.p0.p0.i64(ptr align 8 %0, ptr align 8 %4, i64 64, i1 false)
  %5 = getelementptr inbounds nuw %"struct.llvm::SimplifyQuery", ptr %0, i32 0, i32 8
  store i8 0, ptr %5, align 1
  ret void
}

; Function Attrs: mustprogress nounwind uwtable
define internal noundef ptr @_ZL24simplifySelectWithICmpEqPN4llvm5ValueES1_S1_S1_RKNS_13SimplifyQueryEj(ptr noundef %0, ptr noundef %1, ptr noundef %2, ptr noundef %3, ptr noundef nonnull align 8 dereferenceable(58) %4, i32 noundef %5) #1 {
  %7 = alloca ptr, align 8
  %8 = alloca ptr, align 8
  %9 = alloca ptr, align 8
  %10 = alloca ptr, align 8
  %11 = alloca ptr, align 8
  %12 = alloca ptr, align 8
  %13 = alloca i32, align 4
  %14 = alloca %"struct.llvm::SimplifyQuery", align 8
  store ptr %0, ptr %8, align 8
  store ptr %1, ptr %9, align 8
  store ptr %2, ptr %10, align 8
  store ptr %3, ptr %11, align 8
  store ptr %4, ptr %12, align 8
  store i32 %5, ptr %13, align 4
  %15 = load ptr, ptr %11, align 8
  %16 = load ptr, ptr %8, align 8
  %17 = load ptr, ptr %9, align 8
  %18 = load ptr, ptr %12, align 8
  call void @_ZNK4llvm13SimplifyQuery15getWithoutUndefEv(ptr dead_on_unwind writable sret(%"struct.llvm::SimplifyQuery") align 8 %14, ptr noundef nonnull align 8 dereferenceable(58) %18)
  %19 = load i32, ptr %13, align 4
  %20 = call noundef ptr @_ZL22simplifyWithOpReplacedPN4llvm5ValueES1_S1_RKNS_13SimplifyQueryEbPNS_15SmallVectorImplIPNS_11InstructionEEEj(ptr noundef %15, ptr noundef %16, ptr noundef %17, ptr noundef nonnull align 8 dereferenceable(58) %14, i1 noundef zeroext false, ptr noundef null, i32 noundef %19)
  %21 = load ptr, ptr %10, align 8
  %22 = icmp eq ptr %20, %21
  br i1 %22, label %23, label %25

23:                                               ; preds = %6
  %24 = load ptr, ptr %11, align 8
  store ptr %24, ptr %7, align 8
  br label %37

25:                                               ; preds = %6
  %26 = load ptr, ptr %10, align 8
  %27 = load ptr, ptr %8, align 8
  %28 = load ptr, ptr %9, align 8
  %29 = load ptr, ptr %12, align 8
  %30 = load i32, ptr %13, align 4
  %31 = call noundef ptr @_ZL22simplifyWithOpReplacedPN4llvm5ValueES1_S1_RKNS_13SimplifyQueryEbPNS_15SmallVectorImplIPNS_11InstructionEEEj(ptr noundef %26, ptr noundef %27, ptr noundef %28, ptr noundef nonnull align 8 dereferenceable(58) %29, i1 noundef zeroext true, ptr noundef null, i32 noundef %30)
  %32 = load ptr, ptr %11, align 8
  %33 = icmp eq ptr %31, %32
  br i1 %33, label %34, label %36

34:                                               ; preds = %25
  %35 = load ptr, ptr %11, align 8
  store ptr %35, ptr %7, align 8
  br label %37

36:                                               ; preds = %25
  store ptr null, ptr %7, align 8
  br label %37

37:                                               ; preds = %36, %34, %23
  %38 = load ptr, ptr %7, align 8
  ret ptr %38
}