; Function Attrs: mustprogress nounwind uwtable
define internal fastcc noundef ptr @_ZL24simplifySelectWithICmpEqPN4llvm5ValueES1_S1_S1_RKNS_13SimplifyQueryEj(ptr noundef %0, ptr noundef %1, ptr noundef %2, ptr noundef %3, ptr nocapture noundef nonnull readonly align 8 dereferenceable(58) %4, i32 noundef %5) unnamed_addr #0 {
  %7 = alloca %"struct.llvm::SimplifyQuery", align 8
  call void @llvm.memcpy.p0.p0.i64(ptr noundef nonnull align 8 dereferenceable(64) %7, ptr noundef nonnull align 8 dereferenceable(64) %4, i64 64, i1 false)
  %8 = getelementptr inbounds nuw i8, ptr %7, i64 57
  store i8 0, ptr %8, align 1, !alias.scope !426
  %9 = call fastcc noundef ptr @_ZL22simplifyWithOpReplacedPN4llvm5ValueES1_S1_RKNS_13SimplifyQueryEbPNS_15SmallVectorImplIPNS_11InstructionEEEj(ptr noundef %3, ptr noundef %0, ptr noundef %1, ptr noundef nonnull align 8 dereferenceable(58) %7, i1 noundef zeroext false, ptr noundef null, i32 noundef %5)
  %10 = icmp eq ptr %9, %2
  br i1 %10, label %14, label %11

11:                                               ; preds = %6
  %12 = tail call fastcc noundef ptr @_ZL22simplifyWithOpReplacedPN4llvm5ValueES1_S1_RKNS_13SimplifyQueryEbPNS_15SmallVectorImplIPNS_11InstructionEEEj(ptr noundef %2, ptr noundef %0, ptr noundef %1, ptr noundef nonnull align 8 dereferenceable(58) %4, i1 noundef zeroext true, ptr noundef null, i32 noundef %5)
  %13 = icmp eq ptr %12, %3
  %. = select i1 %13, ptr %3, ptr null
  br label %14

14:                                               ; preds = %11, %6
  %.0 = phi ptr [ %3, %6 ], [ %., %11 ]
  ret ptr %.0
}